; ModuleID = '27/1552.c'
source_filename = "27/1552.c"
target datalayout = "e-m:e-p270:32:32-p271:32:32-p272:64:64-i64:64-f80:128-n8:16:32:64-S128"
target triple = "x86_64-pc-linux-gnu"

@.str = private unnamed_addr constant [3 x i8] c"%d\00", align 1
@.str.1 = private unnamed_addr constant [12 x i8] c"%lf %lf %lf\00", align 1
@.str.2 = private unnamed_addr constant [19 x i8] c"x1=%.5lf;x2=%.5lf\0A\00", align 1
@.str.3 = private unnamed_addr constant [13 x i8] c"x1=x2=%.5lf\0A\00", align 1
@.str.4 = private unnamed_addr constant [33 x i8] c"x1=%.5lf+%.5lfi;x2=%.5lf-%.5lfi\0A\00", align 1

; Function Attrs: noinline nounwind uwtable
define dso_local i32 @main() #0 {
  %1 = alloca i32, align 4
  %2 = alloca i32, align 4
  %3 = alloca i32, align 4
  %4 = alloca [100 x double], align 16
  %5 = alloca [100 x double], align 16
  %6 = alloca [100 x double], align 16
  %7 = alloca [100 x double], align 16
  %8 = alloca [100 x double], align 16
  %9 = alloca [100 x double], align 16
  %10 = alloca [100 x double], align 16
  %11 = alloca [100 x double], align 16
  store i32 0, i32* %1, align 4
  %12 = call i32 (i8*, ...) @__isoc99_scanf(i8* getelementptr inbounds ([3 x i8], [3 x i8]* @.str, i64 0, i64 0), i32* %2)
  store i32 0, i32* %3, align 4
  br label %13

13:                                               ; preds = %158, %0
  %14 = load i32, i32* %3, align 4
  %15 = load i32, i32* %2, align 4
  %16 = icmp slt i32 %14, %15
  br i1 %16, label %17, label %161

17:                                               ; preds = %13
  %18 = load i32, i32* %3, align 4
  %19 = sext i32 %18 to i64
  %20 = getelementptr inbounds [100 x double], [100 x double]* %4, i64 0, i64 %19
  %21 = load i32, i32* %3, align 4
  %22 = sext i32 %21 to i64
  %23 = getelementptr inbounds [100 x double], [100 x double]* %5, i64 0, i64 %22
  %24 = load i32, i32* %3, align 4
  %25 = sext i32 %24 to i64
  %26 = getelementptr inbounds [100 x double], [100 x double]* %6, i64 0, i64 %25
  %27 = call i32 (i8*, ...) @__isoc99_scanf(i8* getelementptr inbounds ([12 x i8], [12 x i8]* @.str.1, i64 0, i64 0), double* %20, double* %23, double* %26)
  %28 = load i32, i32* %3, align 4
  %29 = sext i32 %28 to i64
  %30 = getelementptr inbounds [100 x double], [100 x double]* %5, i64 0, i64 %29
  %31 = load double, double* %30, align 8
  %32 = load i32, i32* %3, align 4
  %33 = sext i32 %32 to i64
  %34 = getelementptr inbounds [100 x double], [100 x double]* %5, i64 0, i64 %33
  %35 = load double, double* %34, align 8
  %36 = fmul double %31, %35
  %37 = load i32, i32* %3, align 4
  %38 = sext i32 %37 to i64
  %39 = getelementptr inbounds [100 x double], [100 x double]* %4, i64 0, i64 %38
  %40 = load double, double* %39, align 8
  %41 = fmul double 4.000000e+00, %40
  %42 = load i32, i32* %3, align 4
  %43 = sext i32 %42 to i64
  %44 = getelementptr inbounds [100 x double], [100 x double]* %6, i64 0, i64 %43
  %45 = load double, double* %44, align 8
  %46 = fmul double %41, %45
  %47 = fsub double %36, %46
  %48 = load i32, i32* %3, align 4
  %49 = sext i32 %48 to i64
  %50 = getelementptr inbounds [100 x double], [100 x double]* %9, i64 0, i64 %49
  store double %47, double* %50, align 8
  %51 = load i32, i32* %3, align 4
  %52 = sext i32 %51 to i64
  %53 = getelementptr inbounds [100 x double], [100 x double]* %9, i64 0, i64 %52
  %54 = load double, double* %53, align 8
  %55 = fcmp ogt double %54, 0.000000e+00
  br i1 %55, label %56, label %97

56:                                               ; preds = %17
  %57 = load i32, i32* %3, align 4
  %58 = sext i32 %57 to i64
  %59 = getelementptr inbounds [100 x double], [100 x double]* %5, i64 0, i64 %58
  %60 = load double, double* %59, align 8
  %61 = fsub double 0.000000e+00, %60
  %62 = load i32, i32* %3, align 4
  %63 = sext i32 %62 to i64
  %64 = getelementptr inbounds [100 x double], [100 x double]* %9, i64 0, i64 %63
  %65 = load double, double* %64, align 8
  %66 = call double @sqrt(double %65) #3
  %67 = fadd double %61, %66
  %68 = load i32, i32* %3, align 4
  %69 = sext i32 %68 to i64
  %70 = getelementptr inbounds [100 x double], [100 x double]* %4, i64 0, i64 %69
  %71 = load double, double* %70, align 8
  %72 = fmul double 2.000000e+00, %71
  %73 = fdiv double %67, %72
  %74 = load i32, i32* %3, align 4
  %75 = sext i32 %74 to i64
  %76 = getelementptr inbounds [100 x double], [100 x double]* %7, i64 0, i64 %75
  store double %73, double* %76, align 8
  %77 = load i32, i32* %3, align 4
  %78 = sext i32 %77 to i64
  %79 = getelementptr inbounds [100 x double], [100 x double]* %5, i64 0, i64 %78
  %80 = load double, double* %79, align 8
  %81 = fsub double 0.000000e+00, %80
  %82 = load i32, i32* %3, align 4
  %83 = sext i32 %82 to i64
  %84 = getelementptr inbounds [100 x double], [100 x double]* %9, i64 0, i64 %83
  %85 = load double, double* %84, align 8
  %86 = call double @sqrt(double %85) #3
  %87 = fsub double %81, %86
  %88 = load i32, i32* %3, align 4
  %89 = sext i32 %88 to i64
  %90 = getelementptr inbounds [100 x double], [100 x double]* %4, i64 0, i64 %89
  %91 = load double, double* %90, align 8
  %92 = fmul double 2.000000e+00, %91
  %93 = fdiv double %87, %92
  %94 = load i32, i32* %3, align 4
  %95 = sext i32 %94 to i64
  %96 = getelementptr inbounds [100 x double], [100 x double]* %8, i64 0, i64 %95
  store double %93, double* %96, align 8
  br label %97

97:                                               ; preds = %56, %17
  %98 = load i32, i32* %3, align 4
  %99 = sext i32 %98 to i64
  %100 = getelementptr inbounds [100 x double], [100 x double]* %9, i64 0, i64 %99
  %101 = load double, double* %100, align 8
  %102 = fcmp oeq double %101, 0.000000e+00
  br i1 %102, label %103, label %121

103:                                              ; preds = %97
  %104 = load i32, i32* %3, align 4
  %105 = sext i32 %104 to i64
  %106 = getelementptr inbounds [100 x double], [100 x double]* %5, i64 0, i64 %105
  %107 = load double, double* %106, align 8
  %108 = fneg double %107
  %109 = load i32, i32* %3, align 4
  %110 = sext i32 %109 to i64
  %111 = getelementptr inbounds [100 x double], [100 x double]* %4, i64 0, i64 %110
  %112 = load double, double* %111, align 8
  %113 = fmul double 2.000000e+00, %112
  %114 = fdiv double %108, %113
  %115 = load i32, i32* %3, align 4
  %116 = sext i32 %115 to i64
  %117 = getelementptr inbounds [100 x double], [100 x double]* %8, i64 0, i64 %116
  store double %114, double* %117, align 8
  %118 = load i32, i32* %3, align 4
  %119 = sext i32 %118 to i64
  %120 = getelementptr inbounds [100 x double], [100 x double]* %7, i64 0, i64 %119
  store double %114, double* %120, align 8
  br label %121

121:                                              ; preds = %103, %97
  %122 = load i32, i32* %3, align 4
  %123 = sext i32 %122 to i64
  %124 = getelementptr inbounds [100 x double], [100 x double]* %9, i64 0, i64 %123
  %125 = load double, double* %124, align 8
  %126 = fcmp olt double %125, 0.000000e+00
  br i1 %126, label %127, label %157

127:                                              ; preds = %121
  %128 = load i32, i32* %3, align 4
  %129 = sext i32 %128 to i64
  %130 = getelementptr inbounds [100 x double], [100 x double]* %5, i64 0, i64 %129
  %131 = load double, double* %130, align 8
  %132 = fneg double %131
  %133 = load i32, i32* %3, align 4
  %134 = sext i32 %133 to i64
  %135 = getelementptr inbounds [100 x double], [100 x double]* %4, i64 0, i64 %134
  %136 = load double, double* %135, align 8
  %137 = fmul double 2.000000e+00, %136
  %138 = fdiv double %132, %137
  %139 = load i32, i32* %3, align 4
  %140 = sext i32 %139 to i64
  %141 = getelementptr inbounds [100 x double], [100 x double]* %10, i64 0, i64 %140
  store double %138, double* %141, align 8
  %142 = load i32, i32* %3, align 4
  %143 = sext i32 %142 to i64
  %144 = getelementptr inbounds [100 x double], [100 x double]* %9, i64 0, i64 %143
  %145 = load double, double* %144, align 8
  %146 = fneg double %145
  %147 = call double @sqrt(double %146) #3
  %148 = load i32, i32* %3, align 4
  %149 = sext i32 %148 to i64
  %150 = getelementptr inbounds [100 x double], [100 x double]* %4, i64 0, i64 %149
  %151 = load double, double* %150, align 8
  %152 = fmul double 2.000000e+00, %151
  %153 = fdiv double %147, %152
  %154 = load i32, i32* %3, align 4
  %155 = sext i32 %154 to i64
  %156 = getelementptr inbounds [100 x double], [100 x double]* %11, i64 0, i64 %155
  store double %153, double* %156, align 8
  br label %157

157:                                              ; preds = %127, %121
  br label %158

158:                                              ; preds = %157
  %159 = load i32, i32* %3, align 4
  %160 = add nsw i32 %159, 1
  store i32 %160, i32* %3, align 4
  br label %13

161:                                              ; preds = %13
  store i32 0, i32* %3, align 4
  br label %162

162:                                              ; preds = %219, %161
  %163 = load i32, i32* %3, align 4
  %164 = load i32, i32* %2, align 4
  %165 = icmp slt i32 %163, %164
  br i1 %165, label %166, label %222

166:                                              ; preds = %162
  %167 = load i32, i32* %3, align 4
  %168 = sext i32 %167 to i64
  %169 = getelementptr inbounds [100 x double], [100 x double]* %9, i64 0, i64 %168
  %170 = load double, double* %169, align 8
  %171 = fcmp ogt double %170, 0.000000e+00
  br i1 %171, label %172, label %182

172:                                              ; preds = %166
  %173 = load i32, i32* %3, align 4
  %174 = sext i32 %173 to i64
  %175 = getelementptr inbounds [100 x double], [100 x double]* %7, i64 0, i64 %174
  %176 = load double, double* %175, align 8
  %177 = load i32, i32* %3, align 4
  %178 = sext i32 %177 to i64
  %179 = getelementptr inbounds [100 x double], [100 x double]* %8, i64 0, i64 %178
  %180 = load double, double* %179, align 8
  %181 = call i32 (i8*, ...) @printf(i8* getelementptr inbounds ([19 x i8], [19 x i8]* @.str.2, i64 0, i64 0), double %176, double %180)
  br label %182

182:                                              ; preds = %172, %166
  %183 = load i32, i32* %3, align 4
  %184 = sext i32 %183 to i64
  %185 = getelementptr inbounds [100 x double], [100 x double]* %9, i64 0, i64 %184
  %186 = load double, double* %185, align 8
  %187 = fcmp oeq double %186, 0.000000e+00
  br i1 %187, label %188, label %194

188:                                              ; preds = %182
  %189 = load i32, i32* %3, align 4
  %190 = sext i32 %189 to i64
  %191 = getelementptr inbounds [100 x double], [100 x double]* %7, i64 0, i64 %190
  %192 = load double, double* %191, align 8
  %193 = call i32 (i8*, ...) @printf(i8* getelementptr inbounds ([13 x i8], [13 x i8]* @.str.3, i64 0, i64 0), double %192)
  br label %194

194:                                              ; preds = %188, %182
  %195 = load i32, i32* %3, align 4
  %196 = sext i32 %195 to i64
  %197 = getelementptr inbounds [100 x double], [100 x double]* %9, i64 0, i64 %196
  %198 = load double, double* %197, align 8
  %199 = fcmp olt double %198, 0.000000e+00
  br i1 %199, label %200, label %218

200:                                              ; preds = %194
  %201 = load i32, i32* %3, align 4
  %202 = sext i32 %201 to i64
  %203 = getelementptr inbounds [100 x double], [100 x double]* %10, i64 0, i64 %202
  %204 = load double, double* %203, align 8
  %205 = load i32, i32* %3, align 4
  %206 = sext i32 %205 to i64
  %207 = getelementptr inbounds [100 x double], [100 x double]* %11, i64 0, i64 %206
  %208 = load double, double* %207, align 8
  %209 = load i32, i32* %3, align 4
  %210 = sext i32 %209 to i64
  %211 = getelementptr inbounds [100 x double], [100 x double]* %10, i64 0, i64 %210
  %212 = load double, double* %211, align 8
  %213 = load i32, i32* %3, align 4
  %214 = sext i32 %213 to i64
  %215 = getelementptr inbounds [100 x double], [100 x double]* %11, i64 0, i64 %214
  %216 = load double, double* %215, align 8
  %217 = call i32 (i8*, ...) @printf(i8* getelementptr inbounds ([33 x i8], [33 x i8]* @.str.4, i64 0, i64 0), double %204, double %208, double %212, double %216)
  br label %218

218:                                              ; preds = %200, %194
  br label %219

219:                                              ; preds = %218
  %220 = load i32, i32* %3, align 4
  %221 = add nsw i32 %220, 1
  store i32 %221, i32* %3, align 4
  br label %162

222:                                              ; preds = %162
  ret i32 0
}

declare dso_local i32 @__isoc99_scanf(i8*, ...) #1

; Function Attrs: nounwind
declare dso_local double @sqrt(double) #2

declare dso_local i32 @printf(i8*, ...) #1


!llvm.module.flags = !{!0}
!llvm.ident = !{!1}

!0 = !{i32 1, !"wchar_size", i32 4}
!1 = !{!"clang version 10.0.0-4ubuntu1 "}
